; Function Attrs: mustprogress nounwind uwtable
define dso_local noundef i32 @_ZN4llvm4yaml6Output17beginFlowSequenceEv(ptr noundef nonnull align 8 dereferenceable(128) %0) unnamed_addr #6 align 2 {
  %2 = getelementptr inbounds nuw i8, ptr %0, i64 32
  %3 = tail call noundef i64 @_ZNK4llvm15SmallVectorBaseIjE4sizeEv(ptr noundef nonnull align 8 dereferenceable(16) %2) #32
  %4 = add i64 %3, 1
  %5 = tail call noundef i64 @_ZNK4llvm15SmallVectorBaseIjE8capacityEv(ptr noundef nonnull align 8 dereferenceable(16) %2) #32
  %.not.i.i.i = icmp ugt i64 %4, %5
  br i1 %.not.i.i.i, label %6, label %_ZN4llvm23SmallVectorTemplateBaseINS_4yaml6Output7InStateELb1EE9push_backES3_.exit

6:                                                ; preds = %1
  %7 = getelementptr inbounds nuw i8, ptr %0, i64 48
  tail call void @_ZN4llvm15SmallVectorBaseIjE8grow_podEPvmm(ptr noundef nonnull align 8 dereferenceable(16) %2, ptr noundef nonnull %7, i64 noundef %4, i64 noundef 4) #32
  br label %_ZN4llvm23SmallVectorTemplateBaseINS_4yaml6Output7InStateELb1EE9push_backES3_.exit

_ZN4llvm23SmallVectorTemplateBaseINS_4yaml6Output7InStateELb1EE9push_backES3_.exit: ; preds = %1, %6
  %8 = load ptr, ptr %2, align 8
  %9 = tail call noundef i64 @_ZNK4llvm15SmallVectorBaseIjE4sizeEv(ptr noundef nonnull align 8 dereferenceable(16) %2) #32
  %10 = getelementptr inbounds i32, ptr %8, i64 %9
  store i32 2, ptr %10, align 1
  %11 = tail call noundef i64 @_ZNK4llvm15SmallVectorBaseIjE4sizeEv(ptr noundef nonnull align 8 dereferenceable(16) %2) #32
  %12 = add i64 %11, 1
  tail call void @_ZN4llvm15SmallVectorBaseIjE8set_sizeEm(ptr noundef nonnull align 8 dereferenceable(16) %2, i64 noundef %12) #32
  tail call void @_ZN4llvm4yaml6Output12newLineCheckEb(ptr noundef nonnull align 8 dereferenceable(128) %0, i1 noundef zeroext false)
  %13 = getelementptr inbounds nuw i8, ptr %0, i64 80
  %14 = load i32, ptr %13, align 8
  %15 = getelementptr inbounds nuw i8, ptr %0, i64 84
  store i32 %14, ptr %15, align 4
  %16 = add i32 %14, 2
  store i32 %16, ptr %13, align 8
  %17 = getelementptr inbounds nuw i8, ptr %0, i64 16
  %18 = load ptr, ptr %17, align 8
  %19 = getelementptr inbounds nuw i8, ptr %18, i64 24
  %20 = load ptr, ptr %19, align 8
  %21 = getelementptr inbounds nuw i8, ptr %18, i64 32
  %22 = load ptr, ptr %21, align 8
  %23 = ptrtoint ptr %20 to i64
  %24 = ptrtoint ptr %22 to i64
  %25 = sub i64 %23, %24
  %26 = icmp ult i64 %25, 2
  br i1 %26, label %27, label %29

27:                                               ; preds = %_ZN4llvm23SmallVectorTemplateBaseINS_4yaml6Output7InStateELb1EE9push_backES3_.exit
  %28 = tail call noundef nonnull align 8 dereferenceable(48) ptr @_ZN4llvm11raw_ostream5writeEPKcm(ptr noundef nonnull align 8 dereferenceable(48) %18, ptr noundef nonnull @.str.24, i64 noundef 2) #32
  br label %_ZN4llvm4yaml6Output6outputENS_9StringRefE.exit

29:                                               ; preds = %_ZN4llvm23SmallVectorTemplateBaseINS_4yaml6Output7InStateELb1EE9push_backES3_.exit
  store i16 8283, ptr %22, align 1
  %30 = load ptr, ptr %21, align 8
  %31 = getelementptr inbounds nuw i8, ptr %30, i64 2
  store ptr %31, ptr %21, align 8
  br label %_ZN4llvm4yaml6Output6outputENS_9StringRefE.exit

_ZN4llvm4yaml6Output6outputENS_9StringRefE.exit:  ; preds = %27, %29
  %32 = getelementptr inbounds nuw i8, ptr %0, i64 93
  store i8 0, ptr %32, align 1
  ret i32 0
}